target datalayout = "e-m:e-p270:32:32-p271:32:32-p272:64:64-i64:64-i128:128-f80:128-n8:16:32:64-S128"
target triple = "x86_64-pc-linux-gnu"

%struct.AVCodecContext = type { ptr, i32, i32, ptr, i32, i32, ptr, ptr, ptr, i64, i32, i32, ptr, i32, %struct.AVRational, %struct.AVRational, %struct.AVRational, i32, i32, i32, i32, i32, %struct.AVRational, i32, i32, i32, i32, i32, i32, i32, i32, i32, i32, i32, ptr, ptr, i32, float, float, float, float, float, float, float, float, float, i32, i32, i32, i32, i32, i32, i32, i32, i32, i32, i32, i32, ptr, ptr, ptr, i32, i32, i32, i32, i32, i32, i32, i32, i32, i32, %struct.AVChannelLayout, i32, i32, i32, i32, i32, i32, i32, i32, ptr, i32, i32, i32, float, float, i32, i32, i32, i32, i32, ptr, i64, i64, float, float, i32, i32, ptr, ptr, i32, i32, i32, i32, i32, ptr, ptr, ptr, ptr, i32, i32, [8 x i64], i32, i32, i32, i32, i32, i32, i32, ptr, ptr, i32, i32, i32, i32, i32, i32, i32, i32, i32, i32, ptr, ptr, i32, i32, ptr, ptr, ptr, ptr, i32, i32, i64, i32, i32, i64, ptr, i64, ptr, i32, ptr, i32 }
%struct.AVRational = type { i32, i32 }
%struct.AVChannelLayout = type { i32, i32, %union.anon, ptr }
%union.anon = type { i64 }
%struct.WMACodecContext = type { ptr, %struct.GetBitContext, %struct.PutBitContext, i32, i32, i32, i32, i32, i32, %struct.VLC, [5 x i32], [5 x [25 x i16]], [5 x i32], i32, [5 x i32], [5 x i32], [5 x [16 x i32]], %struct.VLC, [2 x [16 x i32]], [2 x [16 x i32]], [2 x %struct.VLC], [2 x ptr], [2 x ptr], [2 x ptr], [2 x ptr], i32, i32, i32, i32, i32, i32, i32, i32, i32, i32, i8, [2 x i8], [2 x i32], [12 x i8], [2 x [2048 x float]], [2 x float], [2 x [2048 x float]], [8 x i8], [2 x [2048 x float]], [4096 x float], [5 x ptr], [5 x ptr], [5 x ptr], [8 x i8], [2 x [4096 x float]], [32832 x i8], i32, i32, [2 x i32], [8192 x float], i32, float, [2048 x float], [256 x float], [128 x float], [128 x float], ptr, i32, [12 x i8] }
%struct.GetBitContext = type { ptr, ptr, i32, i32, i32 }
%struct.PutBitContext = type { i32, i32, ptr, ptr, ptr }
%struct.VLC = type { i32, ptr, i32, i32 }

; Function Attrs: cold nounwind optsize uwtable
define i32 @ff_wma_end(ptr noundef %0) #0 {
  %2 = alloca ptr, align 8
  %3 = alloca ptr, align 8
  %4 = alloca i32, align 4
  store ptr %0, ptr %2, align 8, !tbaa !4
  call void @llvm.lifetime.start.p0(i64 8, ptr %3) #8
  %5 = load ptr, ptr %2, align 8, !tbaa !4
  %6 = getelementptr inbounds nuw %struct.AVCodecContext, ptr %5, i32 0, i32 6
  %7 = load ptr, ptr %6, align 8, !tbaa !11
  store ptr %7, ptr %3, align 8, !tbaa !30
  call void @llvm.lifetime.start.p0(i64 4, ptr %4) #8
  store i32 0, ptr %4, align 4, !tbaa !9
  br label %8

8:                                                ; preds = %20, %1
  %9 = load i32, ptr %4, align 4, !tbaa !9
  %10 = load ptr, ptr %3, align 8, !tbaa !30
  %11 = getelementptr inbounds nuw %struct.WMACodecContext, ptr %10, i32 0, i32 27
  %12 = load i32, ptr %11, align 8, !tbaa !54
  %13 = icmp slt i32 %9, %12
  br i1 %13, label %14, label %23

14:                                               ; preds = %8
  %15 = load ptr, ptr %3, align 8, !tbaa !30
  %16 = getelementptr inbounds nuw %struct.WMACodecContext, ptr %15, i32 0, i32 45
  %17 = load i32, ptr %4, align 4, !tbaa !9
  %18 = sext i32 %17 to i64
  %19 = getelementptr inbounds [5 x ptr], ptr %16, i64 0, i64 %18
  call void @av_tx_uninit(ptr noundef %19)
  br label %20

20:                                               ; preds = %14
  %21 = load i32, ptr %4, align 4, !tbaa !9
  %22 = add nsw i32 %21, 1
  store i32 %22, ptr %4, align 4, !tbaa !9
  br label %8, !llvm.loop !95

23:                                               ; preds = %8
  %24 = load ptr, ptr %3, align 8, !tbaa !30
  %25 = getelementptr inbounds nuw %struct.WMACodecContext, ptr %24, i32 0, i32 6
  %26 = load i32, ptr %25, align 4, !tbaa !73
  %27 = icmp ne i32 %26, 0
  br i1 %27, label %28, label %31

28:                                               ; preds = %23
  %29 = load ptr, ptr %3, align 8, !tbaa !30
  %30 = getelementptr inbounds nuw %struct.WMACodecContext, ptr %29, i32 0, i32 9
  call void @ff_vlc_free(ptr noundef %30)
  br label %31

31:                                               ; preds = %28, %23
  %32 = load ptr, ptr %3, align 8, !tbaa !30
  %33 = getelementptr inbounds nuw %struct.WMACodecContext, ptr %32, i32 0, i32 7
  %34 = load i32, ptr %33, align 8, !tbaa !55
  %35 = icmp ne i32 %34, 0
  br i1 %35, label %36, label %39

36:                                               ; preds = %31
  %37 = load ptr, ptr %3, align 8, !tbaa !30
  %38 = getelementptr inbounds nuw %struct.WMACodecContext, ptr %37, i32 0, i32 17
  call void @ff_vlc_free(ptr noundef %38)
  br label %39

39:                                               ; preds = %36, %31
  store i32 0, ptr %4, align 4, !tbaa !9
  br label %40

40:                                               ; preds = %64, %39
  %41 = load i32, ptr %4, align 4, !tbaa !9
  %42 = icmp slt i32 %41, 2
  br i1 %42, label %43, label %67

43:                                               ; preds = %40
  %44 = load ptr, ptr %3, align 8, !tbaa !30
  %45 = getelementptr inbounds nuw %struct.WMACodecContext, ptr %44, i32 0, i32 20
  %46 = load i32, ptr %4, align 4, !tbaa !9
  %47 = sext i32 %46 to i64
  %48 = getelementptr inbounds [2 x %struct.VLC], ptr %45, i64 0, i64 %47
  call void @ff_vlc_free(ptr noundef %48)
  %49 = load ptr, ptr %3, align 8, !tbaa !30
  %50 = getelementptr inbounds nuw %struct.WMACodecContext, ptr %49, i32 0, i32 21
  %51 = load i32, ptr %4, align 4, !tbaa !9
  %52 = sext i32 %51 to i64
  %53 = getelementptr inbounds [2 x ptr], ptr %50, i64 0, i64 %52
  call void @av_freep(ptr noundef %53)
  %54 = load ptr, ptr %3, align 8, !tbaa !30
  %55 = getelementptr inbounds nuw %struct.WMACodecContext, ptr %54, i32 0, i32 22
  %56 = load i32, ptr %4, align 4, !tbaa !9
  %57 = sext i32 %56 to i64
  %58 = getelementptr inbounds [2 x ptr], ptr %55, i64 0, i64 %57
  call void @av_freep(ptr noundef %58)
  %59 = load ptr, ptr %3, align 8, !tbaa !30
  %60 = getelementptr inbounds nuw %struct.WMACodecContext, ptr %59, i32 0, i32 23
  %61 = load i32, ptr %4, align 4, !tbaa !9
  %62 = sext i32 %61 to i64
  %63 = getelementptr inbounds [2 x ptr], ptr %60, i64 0, i64 %62
  call void @av_freep(ptr noundef %63)
  br label %64

64:                                               ; preds = %43
  %65 = load i32, ptr %4, align 4, !tbaa !9
  %66 = add nsw i32 %65, 1
  store i32 %66, ptr %4, align 4, !tbaa !9
  br label %40, !llvm.loop !96

67:                                               ; preds = %40
  %68 = load ptr, ptr %3, align 8, !tbaa !30
  %69 = getelementptr inbounds nuw %struct.WMACodecContext, ptr %68, i32 0, i32 61
  call void @av_freep(ptr noundef %69)
  call void @llvm.lifetime.end.p0(i64 4, ptr %4) #8
  call void @llvm.lifetime.end.p0(i64 8, ptr %3) #8
  ret i32 0
}