; Function Attrs: cold nounwind optsize uwtable
define noundef i32 @ff_wma_end(ptr noundef readonly captures(none) %0) local_unnamed_addr #0 {
  %2 = getelementptr inbounds nuw i8, ptr %0, i64 32
  %3 = load ptr, ptr %2, align 8, !tbaa !4
  %4 = getelementptr inbounds nuw i8, ptr %3, i64 1176
  %5 = load i32, ptr %4, align 8, !tbaa !50
  %6 = icmp sgt i32 %5, 0
  br i1 %6, label %.lr.ph, label %._crit_edge

.lr.ph:                                           ; preds = %1
  %7 = getelementptr inbounds nuw i8, ptr %3, i64 66784
  br label %8

8:                                                ; preds = %.lr.ph, %8
  %indvars.iv = phi i64 [ 0, %.lr.ph ], [ %indvars.iv.next, %8 ]
  %9 = getelementptr inbounds nuw [5 x ptr], ptr %7, i64 0, i64 %indvars.iv
  tail call void @av_tx_uninit(ptr noundef nonnull %9) #7
  %indvars.iv.next = add nuw nsw i64 %indvars.iv, 1
  %10 = load i32, ptr %4, align 8, !tbaa !50
  %11 = sext i32 %10 to i64
  %12 = icmp slt i64 %indvars.iv.next, %11
  br i1 %12, label %8, label %._crit_edge, !llvm.loop !84

._crit_edge:                                      ; preds = %8, %1
  %13 = getelementptr inbounds nuw i8, ptr %3, i64 84
  %14 = load i32, ptr %13, align 4, !tbaa !68
  %.not = icmp eq i32 %14, 0
  br i1 %.not, label %17, label %15

15:                                               ; preds = %._crit_edge
  %16 = getelementptr inbounds nuw i8, ptr %3, i64 96
  tail call void @ff_vlc_free(ptr noundef nonnull %16) #7
  br label %17

17:                                               ; preds = %15, %._crit_edge
  %18 = getelementptr inbounds nuw i8, ptr %3, i64 88
  %19 = load i32, ptr %18, align 8, !tbaa !51
  %.not20 = icmp eq i32 %19, 0
  br i1 %.not20, label %.critedge, label %20

20:                                               ; preds = %17
  %21 = getelementptr inbounds nuw i8, ptr %3, i64 776
  tail call void @ff_vlc_free(ptr noundef nonnull %21) #7
  br label %.critedge

.critedge:                                        ; preds = %20, %17
  %22 = getelementptr inbounds nuw i8, ptr %3, i64 1056
  %23 = getelementptr inbounds nuw i8, ptr %3, i64 1104
  %24 = getelementptr inbounds nuw i8, ptr %3, i64 1120
  %25 = getelementptr inbounds nuw i8, ptr %3, i64 1136
  tail call void @ff_vlc_free(ptr noundef nonnull %22) #7
  tail call void @av_freep(ptr noundef nonnull %23) #7
  tail call void @av_freep(ptr noundef nonnull %24) #7
  tail call void @av_freep(ptr noundef nonnull %25) #7
  %26 = getelementptr inbounds nuw i8, ptr %3, i64 1080
  tail call void @ff_vlc_free(ptr noundef nonnull %26) #7
  %27 = getelementptr inbounds nuw i8, ptr %3, i64 1112
  tail call void @av_freep(ptr noundef nonnull %27) #7
  %28 = getelementptr inbounds nuw i8, ptr %3, i64 1128
  tail call void @av_freep(ptr noundef nonnull %28) #7
  %29 = getelementptr inbounds nuw i8, ptr %3, i64 1144
  tail call void @av_freep(ptr noundef nonnull %29) #7
  %30 = getelementptr inbounds nuw i8, ptr %3, i64 175544
  tail call void @av_freep(ptr noundef nonnull %30) #7
  ret i32 0
}